; Function Attrs: mustprogress uwtable
define void @_ZNK2cv4gapi2ie8PyParams6paramsEv(ptr dead_on_unwind noalias nocapture writable writeonly sret(%"class.cv::util::any") align 8 %0, ptr nocapture noundef nonnull readonly align 8 dereferenceable(16) %1) local_unnamed_addr #3 align 2 personality ptr @__gxx_personality_v0 {
  %3 = load ptr, ptr %1, align 8
  tail call void @llvm.experimental.noalias.scope.decl(metadata !10)
  %4 = tail call noalias noundef nonnull dereferenceable(736) ptr @_Znwm(i64 noundef 736) #16, !noalias !10
  store ptr getelementptr inbounds inrange(-16, 24) (i8, ptr @_ZTVN2cv4util3any11holder_implINS_4gapi2ie6detail9ParamDescEEE, i64 16), ptr %4, align 8, !noalias !10
  %5 = getelementptr inbounds i8, ptr %4, i64 8
  invoke void @_ZN2cv4gapi2ie6detail9ParamDescC2ERKS3_(ptr noundef nonnull align 8 dereferenceable(728) %5, ptr noundef nonnull align 8 dereferenceable(728) %3)
          to label %_ZNK2cv4gapi2ie6ParamsINS0_7GenericEE6paramsEv.exit unwind label %6, !noalias !10

6:                                                ; preds = %2
  %7 = landingpad { ptr, i32 }
          cleanup
  tail call void @_ZdlPv(ptr noundef nonnull %4) #17, !noalias !10
  resume { ptr, i32 } %7

_ZNK2cv4gapi2ie6ParamsINS0_7GenericEE6paramsEv.exit: ; preds = %2
  store ptr %4, ptr %0, align 8, !alias.scope !10
  ret void
}